target datalayout = "e-m:e-p270:32:32-p271:32:32-p272:64:64-i64:64-i128:128-f80:128-n8:16:32:64-S128"
target triple = "x86_64-pc-linux-gnu"

%struct.FLAC__BitReader = type { ptr, i32, i32, i32, i32, i32, i32, i32, i32, i32, i32, i32, ptr, ptr }

; Function Attrs: nounwind sspstrong uwtable
define hidden void @FLAC__bitreader_free(ptr noundef %0) #0 {
  %2 = alloca ptr, align 8
  store ptr %0, ptr %2, align 8, !tbaa !3
  %3 = load ptr, ptr %2, align 8, !tbaa !3
  %4 = getelementptr inbounds nuw %struct.FLAC__BitReader, ptr %3, i32 0, i32 0
  %5 = load ptr, ptr %4, align 8, !tbaa !8
  %6 = icmp ne ptr null, %5
  br i1 %6, label %7, label %11

7:                                                ; preds = %1
  %8 = load ptr, ptr %2, align 8, !tbaa !3
  %9 = getelementptr inbounds nuw %struct.FLAC__BitReader, ptr %8, i32 0, i32 0
  %10 = load ptr, ptr %9, align 8, !tbaa !8
  call void @free(ptr noundef %10) #10
  br label %11

11:                                               ; preds = %7, %1
  %12 = load ptr, ptr %2, align 8, !tbaa !3
  %13 = getelementptr inbounds nuw %struct.FLAC__BitReader, ptr %12, i32 0, i32 0
  store ptr null, ptr %13, align 8, !tbaa !8
  %14 = load ptr, ptr %2, align 8, !tbaa !3
  %15 = getelementptr inbounds nuw %struct.FLAC__BitReader, ptr %14, i32 0, i32 1
  store i32 0, ptr %15, align 8, !tbaa !12
  %16 = load ptr, ptr %2, align 8, !tbaa !3
  %17 = getelementptr inbounds nuw %struct.FLAC__BitReader, ptr %16, i32 0, i32 3
  store i32 0, ptr %17, align 8, !tbaa !13
  %18 = load ptr, ptr %2, align 8, !tbaa !3
  %19 = getelementptr inbounds nuw %struct.FLAC__BitReader, ptr %18, i32 0, i32 2
  store i32 0, ptr %19, align 4, !tbaa !14
  %20 = load ptr, ptr %2, align 8, !tbaa !3
  %21 = getelementptr inbounds nuw %struct.FLAC__BitReader, ptr %20, i32 0, i32 5
  store i32 0, ptr %21, align 8, !tbaa !15
  %22 = load ptr, ptr %2, align 8, !tbaa !3
  %23 = getelementptr inbounds nuw %struct.FLAC__BitReader, ptr %22, i32 0, i32 4
  store i32 0, ptr %23, align 4, !tbaa !16
  %24 = load ptr, ptr %2, align 8, !tbaa !3
  %25 = getelementptr inbounds nuw %struct.FLAC__BitReader, ptr %24, i32 0, i32 12
  store ptr null, ptr %25, align 8, !tbaa !17
  %26 = load ptr, ptr %2, align 8, !tbaa !3
  %27 = getelementptr inbounds nuw %struct.FLAC__BitReader, ptr %26, i32 0, i32 13
  store ptr null, ptr %27, align 8, !tbaa !18
  %28 = load ptr, ptr %2, align 8, !tbaa !3
  %29 = getelementptr inbounds nuw %struct.FLAC__BitReader, ptr %28, i32 0, i32 9
  store i32 0, ptr %29, align 8, !tbaa !19
  %30 = load ptr, ptr %2, align 8, !tbaa !3
  %31 = getelementptr inbounds nuw %struct.FLAC__BitReader, ptr %30, i32 0, i32 10
  store i32 -1, ptr %31, align 4, !tbaa !20
  %32 = load ptr, ptr %2, align 8, !tbaa !3
  %33 = getelementptr inbounds nuw %struct.FLAC__BitReader, ptr %32, i32 0, i32 11
  store i32 -1, ptr %33, align 8, !tbaa !21
  ret void
}