; Function Attrs: mustprogress nounwind sspstrong willreturn uwtable
define hidden void @FLAC__bitreader_free(ptr noundef captures(none) initializes((8, 28), (40, 52), (56, 72)) %0) local_unnamed_addr #3 {
  %2 = load ptr, ptr %0, align 8, !tbaa !3
  %.not = icmp eq ptr %2, null
  br i1 %.not, label %4, label %3

3:                                                ; preds = %1
  tail call void @free(ptr noundef nonnull %2) #21
  br label %4

4:                                                ; preds = %3, %1
  %5 = getelementptr inbounds nuw i8, ptr %0, i64 56
  %6 = getelementptr inbounds nuw i8, ptr %0, i64 40
  store i32 0, ptr %6, align 8, !tbaa !10
  %7 = getelementptr inbounds nuw i8, ptr %0, i64 44
  tail call void @llvm.memset.p0.i64(ptr noundef nonnull align 8 dereferenceable(28) %0, i8 0, i64 28, i1 false)
  tail call void @llvm.memset.p0.i64(ptr noundef nonnull align 8 dereferenceable(16) %5, i8 0, i64 16, i1 false)
  store i32 -1, ptr %7, align 4, !tbaa !11
  %8 = getelementptr inbounds nuw i8, ptr %0, i64 48
  store i32 -1, ptr %8, align 8, !tbaa !12
  ret void
}